target datalayout = "e-m:e-p270:32:32-p271:32:32-p272:64:64-i64:64-i128:128-f80:128-n8:16:32:64-S128"
target triple = "x86_64-pc-linux-gnu"

@.str = private unnamed_addr constant [46 x i8] c"../openssl/crypto/encode_decode/decoder_lib.c\00", align 1
@__func__.OSSL_DECODER_from_data = private unnamed_addr constant [23 x i8] c"OSSL_DECODER_from_data\00", align 1

; Function Attrs: nounwind uwtable
define i32 @OSSL_DECODER_from_data(ptr noundef %0, ptr noundef %1, ptr noundef %2) #0 {
  %4 = alloca i32, align 4
  %5 = alloca ptr, align 8
  %6 = alloca ptr, align 8
  %7 = alloca ptr, align 8
  %8 = alloca ptr, align 8
  %9 = alloca i32, align 4
  %10 = alloca i32, align 4
  store ptr %0, ptr %5, align 8, !tbaa !3
  store ptr %1, ptr %6, align 8, !tbaa !56
  store ptr %2, ptr %7, align 8, !tbaa !58
  call void @llvm.lifetime.start.p0(i64 8, ptr %8) #7
  call void @llvm.lifetime.start.p0(i64 4, ptr %9) #7
  store i32 0, ptr %9, align 4, !tbaa !10
  %11 = load ptr, ptr %6, align 8, !tbaa !56
  %12 = icmp eq ptr %11, null
  br i1 %12, label %20, label %13

13:                                               ; preds = %3
  %14 = load ptr, ptr %6, align 8, !tbaa !56
  %15 = load ptr, ptr %14, align 8, !tbaa !23
  %16 = icmp eq ptr %15, null
  br i1 %16, label %20, label %17

17:                                               ; preds = %13
  %18 = load ptr, ptr %7, align 8, !tbaa !58
  %19 = icmp eq ptr %18, null
  br i1 %19, label %20, label %21

20:                                               ; preds = %17, %13, %3
  call void @ERR_new()
  call void @ERR_set_debug(ptr noundef @.str, i32 noundef 152, ptr noundef @__func__.OSSL_DECODER_from_data)
  call void (i32, i32, ptr, ...) @ERR_set_error(i32 noundef 60, i32 noundef 786690, ptr noundef null)
  store i32 0, ptr %4, align 4
  store i32 1, ptr %10, align 4
  br label %41

21:                                               ; preds = %17
  %22 = load ptr, ptr %6, align 8, !tbaa !56
  %23 = load ptr, ptr %22, align 8, !tbaa !23
  %24 = load ptr, ptr %7, align 8, !tbaa !58
  %25 = load i64, ptr %24, align 8, !tbaa !12
  %26 = trunc i64 %25 to i32
  %27 = call ptr @BIO_new_mem_buf(ptr noundef %23, i32 noundef %26)
  store ptr %27, ptr %8, align 8, !tbaa !8
  %28 = load ptr, ptr %5, align 8, !tbaa !3
  %29 = load ptr, ptr %8, align 8, !tbaa !8
  %30 = call i32 @OSSL_DECODER_from_bio(ptr noundef %28, ptr noundef %29)
  %31 = icmp ne i32 %30, 0
  br i1 %31, label %32, label %37

32:                                               ; preds = %21
  %33 = load ptr, ptr %8, align 8, !tbaa !8
  %34 = load ptr, ptr %6, align 8, !tbaa !56
  %35 = call i64 @BIO_ctrl(ptr noundef %33, i32 noundef 3, i64 noundef 0, ptr noundef %34)
  %36 = load ptr, ptr %7, align 8, !tbaa !58
  store i64 %35, ptr %36, align 8, !tbaa !12
  store i32 1, ptr %9, align 4, !tbaa !10
  br label %37

37:                                               ; preds = %32, %21
  %38 = load ptr, ptr %8, align 8, !tbaa !8
  %39 = call i32 @BIO_free(ptr noundef %38)
  %40 = load i32, ptr %9, align 4, !tbaa !10
  store i32 %40, ptr %4, align 4
  store i32 1, ptr %10, align 4
  br label %41

41:                                               ; preds = %37, %20
  call void @llvm.lifetime.end.p0(i64 4, ptr %9) #7
  call void @llvm.lifetime.end.p0(i64 8, ptr %8) #7
  %42 = load i32, ptr %4, align 4
  ret i32 %42
}