; Function Attrs: nounwind uwtable
define range(i32 0, 2) i32 @OSSL_DECODER_from_data(ptr noundef %0, ptr noundef %1, ptr noundef captures(address_is_null) %2) local_unnamed_addr #0 {
  %4 = icmp eq ptr %1, null
  br i1 %4, label %9, label %5

5:                                                ; preds = %3
  %6 = load ptr, ptr %1, align 8, !tbaa !20
  %7 = icmp eq ptr %6, null
  %8 = icmp eq ptr %2, null
  %or.cond = or i1 %8, %7
  br i1 %or.cond, label %9, label %10

9:                                                ; preds = %5, %3
  tail call void @ERR_new() #8
  tail call void @ERR_set_debug(ptr noundef nonnull @.str, i32 noundef 152, ptr noundef nonnull @__func__.OSSL_DECODER_from_data) #8
  tail call void (i32, i32, ptr, ...) @ERR_set_error(i32 noundef 60, i32 noundef 786690, ptr noundef null) #8
  br label %19

10:                                               ; preds = %5
  %11 = load i64, ptr %2, align 8, !tbaa !45
  %12 = trunc i64 %11 to i32
  %13 = tail call ptr @BIO_new_mem_buf(ptr noundef nonnull %6, i32 noundef %12) #8
  %14 = tail call i32 @OSSL_DECODER_from_bio(ptr noundef %0, ptr noundef %13)
  %.not = icmp eq i32 %14, 0
  br i1 %.not, label %17, label %15

15:                                               ; preds = %10
  %16 = tail call i64 @BIO_ctrl(ptr noundef %13, i32 noundef 3, i64 noundef 0, ptr noundef nonnull %1) #8
  store i64 %16, ptr %2, align 8, !tbaa !45
  br label %17

17:                                               ; preds = %15, %10
  %.0 = phi i32 [ 1, %15 ], [ 0, %10 ]
  %18 = tail call i32 @BIO_free(ptr noundef %13) #8
  br label %19

19:                                               ; preds = %17, %9
  %.013 = phi i32 [ 0, %9 ], [ %.0, %17 ]
  ret i32 %.013
}